target datalayout = "e-m:e-p270:32:32-p271:32:32-p272:64:64-i64:64-i128:128-f80:128-n8:16:32:64-S128"
target triple = "x86_64-pc-linux-gnu"

%"class.Luau::AstNode.base" = type <{ ptr, i32, %"struct.Luau::Location" }>
%"struct.Luau::Location" = type { %"struct.Luau::Position", %"struct.Luau::Position" }
%"struct.Luau::Position" = type { i32, i32 }
%"class.Luau::AstNode" = type <{ ptr, i32, %"struct.Luau::Location", [4 x i8] }>
%"struct.Luau::AstTypeList" = type { %"struct.Luau::AstArray.292", ptr }
%"struct.Luau::AstArray.292" = type { ptr, i64 }
%"class.Luau::AstTypePackExplicit" = type { %"class.Luau::AstTypePack.base", %"struct.Luau::AstTypeList" }
%"class.Luau::AstTypePack.base" = type { %"class.Luau::AstNode.base" }
%"class.Luau::AstTypePackVariadic" = type { %"class.Luau::AstTypePack.base", ptr }

@_ZN4Luau7AstRttiINS_19AstTypePackExplicitEE5valueE = linkonce_odr dso_local global i32 0, comdat, align 4
@_ZN4Luau7AstRttiINS_19AstTypePackVariadicEE5valueE = linkonce_odr dso_local global i32 0, comdat, align 4
@_ZN4Luau7AstRttiINS_18AstTypePackGenericEE5valueE = linkonce_odr dso_local global i32 0, comdat, align 4

; Function Attrs: mustprogress nounwind uwtable
define linkonce_odr dso_local noundef i32 @_ZN4Luau18AstTypePackGeneric10ClassIndexEv() #2 comdat align 2 {
  %1 = load i32, ptr @_ZN4Luau7AstRttiINS_18AstTypePackGenericEE5valueE, align 4, !tbaa !4
  ret i32 %1
}

; Function Attrs: mustprogress nounwind uwtable
define linkonce_odr dso_local noundef i32 @_ZN4Luau19AstTypePackVariadic10ClassIndexEv() #2 comdat align 2 {
  %1 = load i32, ptr @_ZN4Luau7AstRttiINS_19AstTypePackVariadicEE5valueE, align 4, !tbaa !4
  ret i32 %1
}

; Function Attrs: mustprogress nounwind uwtable
define linkonce_odr dso_local noundef i32 @_ZN4Luau19AstTypePackExplicit10ClassIndexEv() #2 comdat align 2 {
  %1 = load i32, ptr @_ZN4Luau7AstRttiINS_19AstTypePackExplicitEE5valueE, align 4, !tbaa !4
  ret i32 %1
}

; Function Attrs: mustprogress uwtable
define linkonce_odr dso_local noundef ptr @_ZN4Luau7AstNode2asINS_18AstTypePackGenericEEEPT_v(ptr noundef nonnull align 8 dereferenceable(28) %0) #7 comdat align 2 {
  %2 = alloca ptr, align 8
  store ptr %0, ptr %2, align 8, !tbaa !317
  %3 = load ptr, ptr %2, align 8
  %4 = getelementptr inbounds nuw %"class.Luau::AstNode", ptr %3, i32 0, i32 1
  %5 = load i32, ptr %4, align 8, !tbaa !319
  %6 = call noundef i32 @_ZN4Luau18AstTypePackGeneric10ClassIndexEv()
  %7 = icmp eq i32 %5, %6
  br i1 %7, label %8, label %9

8:                                                ; preds = %1
  br label %10

9:                                                ; preds = %1
  br label %10

10:                                               ; preds = %9, %8
  %11 = phi ptr [ %3, %8 ], [ null, %9 ]
  ret ptr %11
}

; Function Attrs: mustprogress uwtable
define dso_local void @_ZN4Luau12TypeChecker25visitEPNS_19AstTypePackVariadicE(ptr noundef nonnull align 8 dereferenceable(784) %0, ptr noundef %1) #7 align 2 {
  %3 = alloca ptr, align 8
  %4 = alloca ptr, align 8
  store ptr %0, ptr %3, align 8, !tbaa !131
  store ptr %1, ptr %4, align 8, !tbaa !1029
  %5 = load ptr, ptr %3, align 8
  %6 = load ptr, ptr %4, align 8, !tbaa !1029
  %7 = getelementptr inbounds nuw %"class.Luau::AstTypePackVariadic", ptr %6, i32 0, i32 1
  %8 = load ptr, ptr %7, align 8, !tbaa !1324
  call void @_ZN4Luau12TypeChecker25visitEPNS_7AstTypeE(ptr noundef nonnull align 8 dereferenceable(784) %5, ptr noundef %8)
  ret void
}

; Function Attrs: mustprogress uwtable
define linkonce_odr dso_local noundef ptr @_ZN4Luau7AstNode2asINS_19AstTypePackVariadicEEEPT_v(ptr noundef nonnull align 8 dereferenceable(28) %0) #7 comdat align 2 {
  %2 = alloca ptr, align 8
  store ptr %0, ptr %2, align 8, !tbaa !317
  %3 = load ptr, ptr %2, align 8
  %4 = getelementptr inbounds nuw %"class.Luau::AstNode", ptr %3, i32 0, i32 1
  %5 = load i32, ptr %4, align 8, !tbaa !319
  %6 = call noundef i32 @_ZN4Luau19AstTypePackVariadic10ClassIndexEv()
  %7 = icmp eq i32 %5, %6
  br i1 %7, label %8, label %9

8:                                                ; preds = %1
  br label %10

9:                                                ; preds = %1
  br label %10

10:                                               ; preds = %9, %8
  %11 = phi ptr [ %3, %8 ], [ null, %9 ]
  ret ptr %11
}

; Function Attrs: mustprogress uwtable
define linkonce_odr dso_local noundef ptr @_ZN4Luau7AstNode2asINS_19AstTypePackExplicitEEEPT_v(ptr noundef nonnull align 8 dereferenceable(28) %0) #7 comdat align 2 {
  %2 = alloca ptr, align 8
  store ptr %0, ptr %2, align 8, !tbaa !317
  %3 = load ptr, ptr %2, align 8
  %4 = getelementptr inbounds nuw %"class.Luau::AstNode", ptr %3, i32 0, i32 1
  %5 = load i32, ptr %4, align 8, !tbaa !319
  %6 = call noundef i32 @_ZN4Luau19AstTypePackExplicit10ClassIndexEv()
  %7 = icmp eq i32 %5, %6
  br i1 %7, label %8, label %9

8:                                                ; preds = %1
  br label %10

9:                                                ; preds = %1
  br label %10

10:                                               ; preds = %9, %8
  %11 = phi ptr [ %3, %8 ], [ null, %9 ]
  ret ptr %11
}

; Function Attrs: mustprogress uwtable
define dso_local void @_ZN4Luau12TypeChecker25visitEPNS_11AstTypePackE(ptr noundef nonnull align 8 dereferenceable(784) %0, ptr noundef %1) #7 align 2 {
  %3 = alloca ptr, align 8
  %4 = alloca ptr, align 8
  %5 = alloca ptr, align 8
  %6 = alloca i32, align 4
  %7 = alloca ptr, align 8
  %8 = alloca ptr, align 8
  store ptr %0, ptr %3, align 8, !tbaa !131
  store ptr %1, ptr %4, align 8, !tbaa !574
  %9 = load ptr, ptr %3, align 8
  call void @llvm.lifetime.start.p0(i64 8, ptr %5) #4
  %10 = load ptr, ptr %4, align 8, !tbaa !574
  %11 = call noundef ptr @_ZN4Luau7AstNode2asINS_19AstTypePackExplicitEEEPT_v(ptr noundef nonnull align 8 dereferenceable(28) %10)
  store ptr %11, ptr %5, align 8, !tbaa !1027
  %12 = load ptr, ptr %5, align 8, !tbaa !1027
  %13 = icmp ne ptr %12, null
  br i1 %13, label %14, label %16

14:                                               ; preds = %2
  %15 = load ptr, ptr %5, align 8, !tbaa !1027
  call void @_ZN4Luau12TypeChecker25visitEPNS_19AstTypePackExplicitE(ptr noundef nonnull align 8 dereferenceable(784) %9, ptr noundef %15)
  store i32 1, ptr %6, align 4
  br label %39

16:                                               ; preds = %2
  call void @llvm.lifetime.start.p0(i64 8, ptr %7) #4
  %17 = load ptr, ptr %4, align 8, !tbaa !574
  %18 = call noundef ptr @_ZN4Luau7AstNode2asINS_19AstTypePackVariadicEEEPT_v(ptr noundef nonnull align 8 dereferenceable(28) %17)
  store ptr %18, ptr %7, align 8, !tbaa !1029
  %19 = load ptr, ptr %7, align 8, !tbaa !1029
  %20 = icmp ne ptr %19, null
  br i1 %20, label %21, label %23

21:                                               ; preds = %16
  %22 = load ptr, ptr %7, align 8, !tbaa !1029
  call void @_ZN4Luau12TypeChecker25visitEPNS_19AstTypePackVariadicE(ptr noundef nonnull align 8 dereferenceable(784) %9, ptr noundef %22)
  store i32 1, ptr %6, align 4
  br label %35

23:                                               ; preds = %16
  call void @llvm.lifetime.start.p0(i64 8, ptr %8) #4
  %24 = load ptr, ptr %4, align 8, !tbaa !574
  %25 = call noundef ptr @_ZN4Luau7AstNode2asINS_18AstTypePackGenericEEEPT_v(ptr noundef nonnull align 8 dereferenceable(28) %24)
  store ptr %25, ptr %8, align 8, !tbaa !1031
  %26 = load ptr, ptr %8, align 8, !tbaa !1031
  %27 = icmp ne ptr %26, null
  br i1 %27, label %28, label %30

28:                                               ; preds = %23
  %29 = load ptr, ptr %8, align 8, !tbaa !1031
  call void @_ZN4Luau12TypeChecker25visitEPNS_18AstTypePackGenericE(ptr noundef nonnull align 8 dereferenceable(784) %9, ptr noundef %29)
  store i32 1, ptr %6, align 4
  br label %31

30:                                               ; preds = %23
  store i32 0, ptr %6, align 4
  br label %31

31:                                               ; preds = %30, %28
  call void @llvm.lifetime.end.p0(i64 8, ptr %8) #4
  %32 = load i32, ptr %6, align 4
  switch i32 %32, label %35 [
    i32 0, label %33
  ]

33:                                               ; preds = %31
  br label %34

34:                                               ; preds = %33
  store i32 0, ptr %6, align 4
  br label %35

35:                                               ; preds = %34, %31, %21
  call void @llvm.lifetime.end.p0(i64 8, ptr %7) #4
  %36 = load i32, ptr %6, align 4
  switch i32 %36, label %39 [
    i32 0, label %37
  ]

37:                                               ; preds = %35
  br label %38

38:                                               ; preds = %37
  store i32 0, ptr %6, align 4
  br label %39

39:                                               ; preds = %38, %35, %14
  call void @llvm.lifetime.end.p0(i64 8, ptr %5) #4
  %40 = load i32, ptr %6, align 4
  switch i32 %40, label %42 [
    i32 0, label %41
    i32 1, label %41
  ]

41:                                               ; preds = %39, %39
  ret void

42:                                               ; preds = %39
  unreachable
}

; Function Attrs: mustprogress nounwind uwtable
define linkonce_odr dso_local noundef ptr @_ZNK4Luau8AstArrayIPNS_7AstTypeEE3endEv(ptr noundef nonnull align 8 dereferenceable(16) %0) #2 comdat align 2 {
  %2 = alloca ptr, align 8
  store ptr %0, ptr %2, align 8, !tbaa !1020
  %3 = load ptr, ptr %2, align 8
  %4 = getelementptr inbounds nuw %"struct.Luau::AstArray.292", ptr %3, i32 0, i32 0
  %5 = load ptr, ptr %4, align 8, !tbaa !1025
  %6 = getelementptr inbounds nuw %"struct.Luau::AstArray.292", ptr %3, i32 0, i32 1
  %7 = load i64, ptr %6, align 8, !tbaa !1026
  %8 = getelementptr inbounds nuw ptr, ptr %5, i64 %7
  ret ptr %8
}

; Function Attrs: mustprogress nounwind uwtable
define linkonce_odr dso_local noundef ptr @_ZNK4Luau8AstArrayIPNS_7AstTypeEE5beginEv(ptr noundef nonnull align 8 dereferenceable(16) %0) #2 comdat align 2 {
  %2 = alloca ptr, align 8
  store ptr %0, ptr %2, align 8, !tbaa !1020
  %3 = load ptr, ptr %2, align 8
  %4 = getelementptr inbounds nuw %"struct.Luau::AstArray.292", ptr %3, i32 0, i32 0
  %5 = load ptr, ptr %4, align 8, !tbaa !1025
  ret ptr %5
}

; Function Attrs: mustprogress uwtable
define dso_local void @_ZN4Luau12TypeChecker25visitEPNS_19AstTypePackExplicitE(ptr noundef nonnull align 8 dereferenceable(784) %0, ptr noundef %1) #7 align 2 {
  %3 = alloca ptr, align 8
  %4 = alloca ptr, align 8
  %5 = alloca ptr, align 8
  %6 = alloca ptr, align 8
  %7 = alloca ptr, align 8
  %8 = alloca ptr, align 8
  store ptr %0, ptr %3, align 8, !tbaa !131
  store ptr %1, ptr %4, align 8, !tbaa !1027
  %9 = load ptr, ptr %3, align 8
  call void @llvm.lifetime.start.p0(i64 8, ptr %5) #4
  %10 = load ptr, ptr %4, align 8, !tbaa !1027
  %11 = getelementptr inbounds nuw %"class.Luau::AstTypePackExplicit", ptr %10, i32 0, i32 1
  %12 = getelementptr inbounds nuw %"struct.Luau::AstTypeList", ptr %11, i32 0, i32 0
  store ptr %12, ptr %5, align 8, !tbaa !1020
  call void @llvm.lifetime.start.p0(i64 8, ptr %6) #4
  %13 = load ptr, ptr %5, align 8, !tbaa !1020
  %14 = call noundef ptr @_ZNK4Luau8AstArrayIPNS_7AstTypeEE5beginEv(ptr noundef nonnull align 8 dereferenceable(16) %13)
  store ptr %14, ptr %6, align 8, !tbaa !570
  call void @llvm.lifetime.start.p0(i64 8, ptr %7) #4
  %15 = load ptr, ptr %5, align 8, !tbaa !1020
  %16 = call noundef ptr @_ZNK4Luau8AstArrayIPNS_7AstTypeEE3endEv(ptr noundef nonnull align 8 dereferenceable(16) %15)
  store ptr %16, ptr %7, align 8, !tbaa !570
  br label %17

17:                                               ; preds = %26, %2
  %18 = load ptr, ptr %6, align 8, !tbaa !570
  %19 = load ptr, ptr %7, align 8, !tbaa !570
  %20 = icmp ne ptr %18, %19
  br i1 %20, label %22, label %21

21:                                               ; preds = %17
  call void @llvm.lifetime.end.p0(i64 8, ptr %7) #4
  call void @llvm.lifetime.end.p0(i64 8, ptr %6) #4
  call void @llvm.lifetime.end.p0(i64 8, ptr %5) #4
  br label %29

22:                                               ; preds = %17
  call void @llvm.lifetime.start.p0(i64 8, ptr %8) #4
  %23 = load ptr, ptr %6, align 8, !tbaa !570
  %24 = load ptr, ptr %23, align 8, !tbaa !553
  store ptr %24, ptr %8, align 8, !tbaa !553
  %25 = load ptr, ptr %8, align 8, !tbaa !553
  call void @_ZN4Luau12TypeChecker25visitEPNS_7AstTypeE(ptr noundef nonnull align 8 dereferenceable(784) %9, ptr noundef %25)
  call void @llvm.lifetime.end.p0(i64 8, ptr %8) #4
  br label %26

26:                                               ; preds = %22
  %27 = load ptr, ptr %6, align 8, !tbaa !570
  %28 = getelementptr inbounds nuw ptr, ptr %27, i32 1
  store ptr %28, ptr %6, align 8, !tbaa !570
  br label %17

29:                                               ; preds = %21
  %30 = load ptr, ptr %4, align 8, !tbaa !1027
  %31 = getelementptr inbounds nuw %"class.Luau::AstTypePackExplicit", ptr %30, i32 0, i32 1
  %32 = getelementptr inbounds nuw %"struct.Luau::AstTypeList", ptr %31, i32 0, i32 1
  %33 = load ptr, ptr %32, align 8, !tbaa !1321
  %34 = icmp ne ptr %33, null
  br i1 %34, label %35, label %40

35:                                               ; preds = %29
  %36 = load ptr, ptr %4, align 8, !tbaa !1027
  %37 = getelementptr inbounds nuw %"class.Luau::AstTypePackExplicit", ptr %36, i32 0, i32 1
  %38 = getelementptr inbounds nuw %"struct.Luau::AstTypeList", ptr %37, i32 0, i32 1
  %39 = load ptr, ptr %38, align 8, !tbaa !1321
  call void @_ZN4Luau12TypeChecker25visitEPNS_11AstTypePackE(ptr noundef nonnull align 8 dereferenceable(784) %9, ptr noundef %39)
  br label %40

40:                                               ; preds = %35, %29
  ret void
}