; Function Attrs: mustprogress uwtable
define dso_local void @_ZN4Luau12TypeChecker25visitEPNS_19AstTypePackExplicitE(ptr noundef nonnull align 8 dereferenceable(784) %0, ptr noundef readonly captures(none) %1) local_unnamed_addr #5 align 2 {
  %3 = getelementptr inbounds nuw i8, ptr %1, i64 32
  %4 = load ptr, ptr %3, align 8, !tbaa !603
  %5 = getelementptr inbounds nuw i8, ptr %1, i64 40
  %6 = load i64, ptr %5, align 8, !tbaa !605
  %7 = getelementptr inbounds nuw ptr, ptr %4, i64 %6
  %.not18 = icmp eq i64 %6, 0
  br i1 %.not18, label %._crit_edge, label %.lr.ph

._crit_edge:                                      ; preds = %.lr.ph, %2
  %8 = getelementptr inbounds nuw i8, ptr %1, i64 48
  %9 = load ptr, ptr %8, align 8, !tbaa !606
  %.not12 = icmp eq ptr %9, null
  br i1 %.not12, label %_ZN4Luau12TypeChecker25visitEPNS_11AstTypePackE.exit, label %tailrecurse.i

.lr.ph:                                           ; preds = %2, %.lr.ph
  %.019 = phi ptr [ %11, %.lr.ph ], [ %4, %2 ]
  %10 = load ptr, ptr %.019, align 8, !tbaa !422
  tail call void @_ZN4Luau12TypeChecker25visitEPNS_7AstTypeE(ptr noundef nonnull align 8 dereferenceable(784) %0, ptr noundef %10)
  %11 = getelementptr inbounds nuw i8, ptr %.019, i64 8
  %.not = icmp eq ptr %11, %7
  br i1 %.not, label %._crit_edge, label %.lr.ph

tailrecurse.i:                                    ; preds = %._crit_edge, %._crit_edge.i
  %.tr23.i = phi ptr [ %22, %._crit_edge.i ], [ %9, %._crit_edge ]
  %12 = getelementptr inbounds nuw i8, ptr %.tr23.i, i64 8
  %13 = load i32, ptr %12, align 8, !tbaa !244
  %14 = load i32, ptr @_ZN4Luau7AstRttiINS_19AstTypePackExplicitEE5valueE, align 4, !tbaa !4
  %.not13 = icmp eq i32 %13, %14
  br i1 %.not13, label %15, label %25

15:                                               ; preds = %tailrecurse.i
  %16 = getelementptr inbounds nuw i8, ptr %.tr23.i, i64 32
  %17 = load ptr, ptr %16, align 8, !tbaa !603
  %18 = getelementptr inbounds nuw i8, ptr %.tr23.i, i64 40
  %19 = load i64, ptr %18, align 8, !tbaa !605
  %20 = getelementptr inbounds nuw ptr, ptr %17, i64 %19
  %.not.i26.i = icmp eq i64 %19, 0
  br i1 %.not.i26.i, label %._crit_edge.i, label %.lr.ph.i

._crit_edge.i:                                    ; preds = %.lr.ph.i, %15
  %21 = getelementptr inbounds nuw i8, ptr %.tr23.i, i64 48
  %22 = load ptr, ptr %21, align 8, !tbaa !606
  %.not12.i.i = icmp eq ptr %22, null
  br i1 %.not12.i.i, label %_ZN4Luau12TypeChecker25visitEPNS_11AstTypePackE.exit, label %tailrecurse.i

.lr.ph.i:                                         ; preds = %15, %.lr.ph.i
  %.0.i27.i = phi ptr [ %24, %.lr.ph.i ], [ %17, %15 ]
  %23 = load ptr, ptr %.0.i27.i, align 8, !tbaa !422
  tail call void @_ZN4Luau12TypeChecker25visitEPNS_7AstTypeE(ptr noundef nonnull align 8 dereferenceable(784) %0, ptr noundef %23) #38
  %24 = getelementptr inbounds nuw i8, ptr %.0.i27.i, i64 8
  %.not.i.i = icmp eq ptr %24, %20
  br i1 %.not.i.i, label %._crit_edge.i, label %.lr.ph.i

25:                                               ; preds = %tailrecurse.i
  %26 = load i32, ptr @_ZN4Luau7AstRttiINS_19AstTypePackVariadicEE5valueE, align 4, !tbaa !4
  %.not14 = icmp eq i32 %13, %26
  br i1 %.not14, label %27, label %30

27:                                               ; preds = %25
  %28 = getelementptr inbounds nuw i8, ptr %.tr23.i, i64 32
  %29 = load ptr, ptr %28, align 8, !tbaa !610
  tail call void @_ZN4Luau12TypeChecker25visitEPNS_7AstTypeE(ptr noundef nonnull align 8 dereferenceable(784) %0, ptr noundef %29) #38
  br label %_ZN4Luau12TypeChecker25visitEPNS_11AstTypePackE.exit

30:                                               ; preds = %25
  %31 = load i32, ptr @_ZN4Luau7AstRttiINS_18AstTypePackGenericEE5valueE, align 4, !tbaa !4
  %.not15 = icmp eq i32 %13, %31
  br i1 %.not15, label %32, label %_ZN4Luau12TypeChecker25visitEPNS_11AstTypePackE.exit

32:                                               ; preds = %30
  tail call void @_ZN4Luau12TypeChecker25visitEPNS_18AstTypePackGenericE(ptr noundef nonnull align 8 dereferenceable(784) %0, ptr noundef nonnull %.tr23.i)
  br label %_ZN4Luau12TypeChecker25visitEPNS_11AstTypePackE.exit

_ZN4Luau12TypeChecker25visitEPNS_11AstTypePackE.exit: ; preds = %._crit_edge.i, %32, %30, %27, %._crit_edge
  ret void
}